target datalayout = "e-m:e-p270:32:32-p271:32:32-p272:64:64-i64:64-i128:128-f80:128-n8:16:32:64-S128"
target triple = "x86_64-pc-linux-gnu"

%"class.std::basic_ostream" = type { ptr, %"class.std::basic_ios" }
%"class.std::basic_ios" = type { %"class.std::ios_base", ptr, i8, i8, ptr, ptr, ptr, ptr }
%"class.std::ios_base" = type { ptr, i64, i64, i32, i32, i32, ptr, %"struct.std::ios_base::_Words", [8 x %"struct.std::ios_base::_Words"], i32, ptr, %"class.std::locale" }
%"struct.std::ios_base::_Words" = type { ptr, i64 }
%"class.std::locale" = type { ptr }
%"class.std::__cxx11::basic_string" = type { %"struct.std::__cxx11::basic_string<char>::_Alloc_hider", i64, %union.anon }
%"struct.std::__cxx11::basic_string<char>::_Alloc_hider" = type { ptr }
%union.anon = type { i64, [8 x i8] }
%"struct.std::_Vector_base" = type { %"struct.std::_Vector_base<jsonnet::internal::FodderElement, std::allocator<jsonnet::internal::FodderElement>>::_Vector_impl" }
%"struct.std::_Vector_base<jsonnet::internal::FodderElement, std::allocator<jsonnet::internal::FodderElement>>::_Vector_impl" = type { %"struct.std::_Vector_base<jsonnet::internal::FodderElement, std::allocator<jsonnet::internal::FodderElement>>::_Vector_impl_data" }
%"struct.std::_Vector_base<jsonnet::internal::FodderElement, std::allocator<jsonnet::internal::FodderElement>>::_Vector_impl_data" = type { ptr, ptr, ptr }
%"class.std::vector" = type { %"struct.std::_Vector_base" }
%"struct.jsonnet::internal::LocationRange" = type { %"class.std::__cxx11::basic_string", %"struct.jsonnet::internal::Location", %"struct.jsonnet::internal::Location" }
%"struct.jsonnet::internal::Location" = type { i64, i64 }
%"struct.jsonnet::internal::AST" = type { ptr, %"struct.jsonnet::internal::LocationRange", i32, %"class.std::vector", %"class.std::vector.40" }
%"class.std::vector.40" = type { %"struct.std::_Vector_base.41" }
%"struct.std::_Vector_base.41" = type { %"struct.std::_Vector_base<const jsonnet::internal::Identifier *, std::allocator<const jsonnet::internal::Identifier *>>::_Vector_impl" }
%"struct.std::_Vector_base<const jsonnet::internal::Identifier *, std::allocator<const jsonnet::internal::Identifier *>>::_Vector_impl" = type { %"struct.std::_Vector_base<const jsonnet::internal::Identifier *, std::allocator<const jsonnet::internal::Identifier *>>::_Vector_impl_data" }
%"struct.std::_Vector_base<const jsonnet::internal::Identifier *, std::allocator<const jsonnet::internal::Identifier *>>::_Vector_impl_data" = type { ptr, ptr, ptr }

@_ZSt4cerr = external global %"class.std::basic_ostream", align 8
@.str = private unnamed_addr constant [30 x i8] c"INTERNAL ERROR: Unknown AST: \00", align 1

; Function Attrs: mustprogress uwtable
define available_externally noundef nonnull align 8 dereferenceable(8) ptr @_ZNSolsEPFRSoS_E(ptr noundef nonnull align 8 dereferenceable(8) %0, ptr noundef %1) #4 align 2 {
  %3 = alloca ptr, align 8
  %4 = alloca ptr, align 8
  store ptr %0, ptr %3, align 8, !tbaa !214
  store ptr %1, ptr %4, align 8, !tbaa !217
  %5 = load ptr, ptr %3, align 8
  %6 = load ptr, ptr %4, align 8, !tbaa !217
  %7 = call noundef nonnull align 8 dereferenceable(8) ptr %6(ptr noundef nonnull align 8 dereferenceable(8) %5)
  ret ptr %7
}

; Function Attrs: mustprogress uwtable
define void @_ZN7jsonnet8internal12CompilerPass9visitExprERPNS0_3ASTE(ptr noundef nonnull align 8 dereferenceable(16) %0, ptr noundef nonnull align 8 dereferenceable(8) %1) unnamed_addr #4 align 2 {
  %3 = alloca ptr, align 8
  %4 = alloca ptr, align 8
  %5 = alloca ptr, align 8
  %6 = alloca ptr, align 8
  %7 = alloca ptr, align 8
  %8 = alloca ptr, align 8
  %9 = alloca ptr, align 8
  %10 = alloca ptr, align 8
  %11 = alloca ptr, align 8
  %12 = alloca ptr, align 8
  %13 = alloca ptr, align 8
  %14 = alloca ptr, align 8
  %15 = alloca ptr, align 8
  %16 = alloca ptr, align 8
  %17 = alloca ptr, align 8
  %18 = alloca ptr, align 8
  %19 = alloca ptr, align 8
  %20 = alloca ptr, align 8
  %21 = alloca ptr, align 8
  %22 = alloca ptr, align 8
  %23 = alloca ptr, align 8
  %24 = alloca ptr, align 8
  %25 = alloca ptr, align 8
  %26 = alloca ptr, align 8
  %27 = alloca ptr, align 8
  %28 = alloca ptr, align 8
  %29 = alloca ptr, align 8
  %30 = alloca ptr, align 8
  %31 = alloca ptr, align 8
  %32 = alloca ptr, align 8
  %33 = alloca ptr, align 8
  %34 = alloca ptr, align 8
  store ptr %0, ptr %3, align 8, !tbaa !21
  store ptr %1, ptr %4, align 8, !tbaa !87
  %35 = load ptr, ptr %3, align 8
  %36 = load ptr, ptr %4, align 8, !tbaa !87
  %37 = load ptr, ptr %36, align 8, !tbaa !90
  %38 = getelementptr inbounds nuw %"struct.jsonnet::internal::AST", ptr %37, i32 0, i32 2
  %39 = load i32, ptr %38, align 8, !tbaa !198
  switch i32 %39, label %250 [
    i32 0, label %40
    i32 1, label %47
    i32 2, label %54
    i32 3, label %61
    i32 5, label %68
    i32 6, label %75
    i32 7, label %82
    i32 8, label %89
    i32 9, label %96
    i32 10, label %103
    i32 11, label %110
    i32 12, label %117
    i32 13, label %124
    i32 14, label %131
    i32 15, label %138
    i32 16, label %145
    i32 17, label %152
    i32 18, label %159
    i32 19, label %166
    i32 20, label %173
    i32 21, label %180
    i32 22, label %187
    i32 23, label %194
    i32 24, label %201
    i32 25, label %208
    i32 26, label %215
    i32 27, label %222
    i32 28, label %229
    i32 29, label %236
    i32 30, label %243
  ]

40:                                               ; preds = %2
  call void @llvm.lifetime.start.p0(i64 8, ptr %5) #3
  %41 = load ptr, ptr %4, align 8, !tbaa !87
  %42 = load ptr, ptr %41, align 8, !tbaa !90
  store ptr %42, ptr %5, align 8, !tbaa !91
  %43 = load ptr, ptr %5, align 8, !tbaa !91
  %44 = load ptr, ptr %35, align 8, !tbaa !27
  %45 = getelementptr inbounds ptr, ptr %44, i64 7
  %46 = load ptr, ptr %45, align 8
  call void %46(ptr noundef nonnull align 8 dereferenceable(16) %35, ptr noundef %43)
  call void @llvm.lifetime.end.p0(i64 8, ptr %5) #3
  br label %256

47:                                               ; preds = %2
  call void @llvm.lifetime.start.p0(i64 8, ptr %6) #3
  %48 = load ptr, ptr %4, align 8, !tbaa !87
  %49 = load ptr, ptr %48, align 8, !tbaa !90
  store ptr %49, ptr %6, align 8, !tbaa !102
  %50 = load ptr, ptr %6, align 8, !tbaa !102
  %51 = load ptr, ptr %35, align 8, !tbaa !27
  %52 = getelementptr inbounds ptr, ptr %51, i64 8
  %53 = load ptr, ptr %52, align 8
  call void %53(ptr noundef nonnull align 8 dereferenceable(16) %35, ptr noundef %50)
  call void @llvm.lifetime.end.p0(i64 8, ptr %6) #3
  br label %256

54:                                               ; preds = %2
  call void @llvm.lifetime.start.p0(i64 8, ptr %7) #3
  %55 = load ptr, ptr %4, align 8, !tbaa !87
  %56 = load ptr, ptr %55, align 8, !tbaa !90
  store ptr %56, ptr %7, align 8, !tbaa !104
  %57 = load ptr, ptr %7, align 8, !tbaa !104
  %58 = load ptr, ptr %35, align 8, !tbaa !27
  %59 = getelementptr inbounds ptr, ptr %58, i64 9
  %60 = load ptr, ptr %59, align 8
  call void %60(ptr noundef nonnull align 8 dereferenceable(16) %35, ptr noundef %57)
  call void @llvm.lifetime.end.p0(i64 8, ptr %7) #3
  br label %256

61:                                               ; preds = %2
  call void @llvm.lifetime.start.p0(i64 8, ptr %8) #3
  %62 = load ptr, ptr %4, align 8, !tbaa !87
  %63 = load ptr, ptr %62, align 8, !tbaa !90
  store ptr %63, ptr %8, align 8, !tbaa !114
  %64 = load ptr, ptr %8, align 8, !tbaa !114
  %65 = load ptr, ptr %35, align 8, !tbaa !27
  %66 = getelementptr inbounds ptr, ptr %65, i64 10
  %67 = load ptr, ptr %66, align 8
  call void %67(ptr noundef nonnull align 8 dereferenceable(16) %35, ptr noundef %64)
  call void @llvm.lifetime.end.p0(i64 8, ptr %8) #3
  br label %256

68:                                               ; preds = %2
  call void @llvm.lifetime.start.p0(i64 8, ptr %9) #3
  %69 = load ptr, ptr %4, align 8, !tbaa !87
  %70 = load ptr, ptr %69, align 8, !tbaa !90
  store ptr %70, ptr %9, align 8, !tbaa !116
  %71 = load ptr, ptr %9, align 8, !tbaa !116
  %72 = load ptr, ptr %35, align 8, !tbaa !27
  %73 = getelementptr inbounds ptr, ptr %72, i64 11
  %74 = load ptr, ptr %73, align 8
  call void %74(ptr noundef nonnull align 8 dereferenceable(16) %35, ptr noundef %71)
  call void @llvm.lifetime.end.p0(i64 8, ptr %9) #3
  br label %256

75:                                               ; preds = %2
  call void @llvm.lifetime.start.p0(i64 8, ptr %10) #3
  %76 = load ptr, ptr %4, align 8, !tbaa !87
  %77 = load ptr, ptr %76, align 8, !tbaa !90
  store ptr %77, ptr %10, align 8, !tbaa !120
  %78 = load ptr, ptr %10, align 8, !tbaa !120
  %79 = load ptr, ptr %35, align 8, !tbaa !27
  %80 = getelementptr inbounds ptr, ptr %79, i64 12
  %81 = load ptr, ptr %80, align 8
  call void %81(ptr noundef nonnull align 8 dereferenceable(16) %35, ptr noundef %78)
  call void @llvm.lifetime.end.p0(i64 8, ptr %10) #3
  br label %256

82:                                               ; preds = %2
  call void @llvm.lifetime.start.p0(i64 8, ptr %11) #3
  %83 = load ptr, ptr %4, align 8, !tbaa !87
  %84 = load ptr, ptr %83, align 8, !tbaa !90
  store ptr %84, ptr %11, align 8, !tbaa !199
  %85 = load ptr, ptr %11, align 8, !tbaa !199
  %86 = load ptr, ptr %35, align 8, !tbaa !27
  %87 = getelementptr inbounds ptr, ptr %86, i64 13
  %88 = load ptr, ptr %87, align 8
  call void %88(ptr noundef nonnull align 8 dereferenceable(16) %35, ptr noundef %85)
  call void @llvm.lifetime.end.p0(i64 8, ptr %11) #3
  br label %256

89:                                               ; preds = %2
  call void @llvm.lifetime.start.p0(i64 8, ptr %12) #3
  %90 = load ptr, ptr %4, align 8, !tbaa !87
  %91 = load ptr, ptr %90, align 8, !tbaa !90
  store ptr %91, ptr %12, align 8, !tbaa !122
  %92 = load ptr, ptr %12, align 8, !tbaa !122
  %93 = load ptr, ptr %35, align 8, !tbaa !27
  %94 = getelementptr inbounds ptr, ptr %93, i64 14
  %95 = load ptr, ptr %94, align 8
  call void %95(ptr noundef nonnull align 8 dereferenceable(16) %35, ptr noundef %92)
  call void @llvm.lifetime.end.p0(i64 8, ptr %12) #3
  br label %256

96:                                               ; preds = %2
  call void @llvm.lifetime.start.p0(i64 8, ptr %13) #3
  %97 = load ptr, ptr %4, align 8, !tbaa !87
  %98 = load ptr, ptr %97, align 8, !tbaa !90
  store ptr %98, ptr %13, align 8, !tbaa !167
  %99 = load ptr, ptr %13, align 8, !tbaa !167
  %100 = load ptr, ptr %35, align 8, !tbaa !27
  %101 = getelementptr inbounds ptr, ptr %100, i64 29
  %102 = load ptr, ptr %101, align 8
  call void %102(ptr noundef nonnull align 8 dereferenceable(16) %35, ptr noundef %99)
  call void @llvm.lifetime.end.p0(i64 8, ptr %13) #3
  br label %256

103:                                              ; preds = %2
  call void @llvm.lifetime.start.p0(i64 8, ptr %14) #3
  %104 = load ptr, ptr %4, align 8, !tbaa !87
  %105 = load ptr, ptr %104, align 8, !tbaa !90
  store ptr %105, ptr %14, align 8, !tbaa !201
  %106 = load ptr, ptr %14, align 8, !tbaa !201
  %107 = load ptr, ptr %35, align 8, !tbaa !27
  %108 = getelementptr inbounds ptr, ptr %107, i64 15
  %109 = load ptr, ptr %108, align 8
  call void %109(ptr noundef nonnull align 8 dereferenceable(16) %35, ptr noundef %106)
  call void @llvm.lifetime.end.p0(i64 8, ptr %14) #3
  br label %256

110:                                              ; preds = %2
  call void @llvm.lifetime.start.p0(i64 8, ptr %15) #3
  %111 = load ptr, ptr %4, align 8, !tbaa !87
  %112 = load ptr, ptr %111, align 8, !tbaa !90
  store ptr %112, ptr %15, align 8, !tbaa !126
  %113 = load ptr, ptr %15, align 8, !tbaa !126
  %114 = load ptr, ptr %35, align 8, !tbaa !27
  %115 = getelementptr inbounds ptr, ptr %114, i64 16
  %116 = load ptr, ptr %115, align 8
  call void %116(ptr noundef nonnull align 8 dereferenceable(16) %35, ptr noundef %113)
  call void @llvm.lifetime.end.p0(i64 8, ptr %15) #3
  br label %256

117:                                              ; preds = %2
  call void @llvm.lifetime.start.p0(i64 8, ptr %16) #3
  %118 = load ptr, ptr %4, align 8, !tbaa !87
  %119 = load ptr, ptr %118, align 8, !tbaa !90
  store ptr %119, ptr %16, align 8, !tbaa !128
  %120 = load ptr, ptr %16, align 8, !tbaa !128
  %121 = load ptr, ptr %35, align 8, !tbaa !27
  %122 = getelementptr inbounds ptr, ptr %121, i64 17
  %123 = load ptr, ptr %122, align 8
  call void %123(ptr noundef nonnull align 8 dereferenceable(16) %35, ptr noundef %120)
  call void @llvm.lifetime.end.p0(i64 8, ptr %16) #3
  br label %256

124:                                              ; preds = %2
  call void @llvm.lifetime.start.p0(i64 8, ptr %17) #3
  %125 = load ptr, ptr %4, align 8, !tbaa !87
  %126 = load ptr, ptr %125, align 8, !tbaa !90
  store ptr %126, ptr %17, align 8, !tbaa !130
  %127 = load ptr, ptr %17, align 8, !tbaa !130
  %128 = load ptr, ptr %35, align 8, !tbaa !27
  %129 = getelementptr inbounds ptr, ptr %128, i64 18
  %130 = load ptr, ptr %129, align 8
  call void %130(ptr noundef nonnull align 8 dereferenceable(16) %35, ptr noundef %127)
  call void @llvm.lifetime.end.p0(i64 8, ptr %17) #3
  br label %256

131:                                              ; preds = %2
  call void @llvm.lifetime.start.p0(i64 8, ptr %18) #3
  %132 = load ptr, ptr %4, align 8, !tbaa !87
  %133 = load ptr, ptr %132, align 8, !tbaa !90
  store ptr %133, ptr %18, align 8, !tbaa !135
  %134 = load ptr, ptr %18, align 8, !tbaa !135
  %135 = load ptr, ptr %35, align 8, !tbaa !27
  %136 = getelementptr inbounds ptr, ptr %135, i64 19
  %137 = load ptr, ptr %136, align 8
  call void %137(ptr noundef nonnull align 8 dereferenceable(16) %35, ptr noundef %134)
  call void @llvm.lifetime.end.p0(i64 8, ptr %18) #3
  br label %256

138:                                              ; preds = %2
  call void @llvm.lifetime.start.p0(i64 8, ptr %19) #3
  %139 = load ptr, ptr %4, align 8, !tbaa !87
  %140 = load ptr, ptr %139, align 8, !tbaa !90
  store ptr %140, ptr %19, align 8, !tbaa !139
  %141 = load ptr, ptr %19, align 8, !tbaa !139
  %142 = load ptr, ptr %35, align 8, !tbaa !27
  %143 = getelementptr inbounds ptr, ptr %142, i64 20
  %144 = load ptr, ptr %143, align 8
  call void %144(ptr noundef nonnull align 8 dereferenceable(16) %35, ptr noundef %141)
  call void @llvm.lifetime.end.p0(i64 8, ptr %19) #3
  br label %256

145:                                              ; preds = %2
  call void @llvm.lifetime.start.p0(i64 8, ptr %20) #3
  %146 = load ptr, ptr %4, align 8, !tbaa !87
  %147 = load ptr, ptr %146, align 8, !tbaa !90
  store ptr %147, ptr %20, align 8, !tbaa !145
  %148 = load ptr, ptr %20, align 8, !tbaa !145
  %149 = load ptr, ptr %35, align 8, !tbaa !27
  %150 = getelementptr inbounds ptr, ptr %149, i64 22
  %151 = load ptr, ptr %150, align 8
  call void %151(ptr noundef nonnull align 8 dereferenceable(16) %35, ptr noundef %148)
  call void @llvm.lifetime.end.p0(i64 8, ptr %20) #3
  br label %256

152:                                              ; preds = %2
  call void @llvm.lifetime.start.p0(i64 8, ptr %21) #3
  %153 = load ptr, ptr %4, align 8, !tbaa !87
  %154 = load ptr, ptr %153, align 8, !tbaa !90
  store ptr %154, ptr %21, align 8, !tbaa !143
  %155 = load ptr, ptr %21, align 8, !tbaa !143
  %156 = load ptr, ptr %35, align 8, !tbaa !27
  %157 = getelementptr inbounds ptr, ptr %156, i64 21
  %158 = load ptr, ptr %157, align 8
  call void %158(ptr noundef nonnull align 8 dereferenceable(16) %35, ptr noundef %155)
  call void @llvm.lifetime.end.p0(i64 8, ptr %21) #3
  br label %256

159:                                              ; preds = %2
  call void @llvm.lifetime.start.p0(i64 8, ptr %22) #3
  %160 = load ptr, ptr %4, align 8, !tbaa !87
  %161 = load ptr, ptr %160, align 8, !tbaa !90
  store ptr %161, ptr %22, align 8, !tbaa !203
  %162 = load ptr, ptr %22, align 8, !tbaa !203
  %163 = load ptr, ptr %35, align 8, !tbaa !27
  %164 = getelementptr inbounds ptr, ptr %163, i64 24
  %165 = load ptr, ptr %164, align 8
  call void %165(ptr noundef nonnull align 8 dereferenceable(16) %35, ptr noundef %162)
  call void @llvm.lifetime.end.p0(i64 8, ptr %22) #3
  br label %256

166:                                              ; preds = %2
  call void @llvm.lifetime.start.p0(i64 8, ptr %23) #3
  %167 = load ptr, ptr %4, align 8, !tbaa !87
  %168 = load ptr, ptr %167, align 8, !tbaa !90
  store ptr %168, ptr %23, align 8, !tbaa !205
  %169 = load ptr, ptr %23, align 8, !tbaa !205
  %170 = load ptr, ptr %35, align 8, !tbaa !27
  %171 = getelementptr inbounds ptr, ptr %170, i64 27
  %172 = load ptr, ptr %171, align 8
  call void %172(ptr noundef nonnull align 8 dereferenceable(16) %35, ptr noundef %169)
  call void @llvm.lifetime.end.p0(i64 8, ptr %23) #3
  br label %256

173:                                              ; preds = %2
  call void @llvm.lifetime.start.p0(i64 8, ptr %24) #3
  %174 = load ptr, ptr %4, align 8, !tbaa !87
  %175 = load ptr, ptr %174, align 8, !tbaa !90
  store ptr %175, ptr %24, align 8, !tbaa !207
  %176 = load ptr, ptr %24, align 8, !tbaa !207
  %177 = load ptr, ptr %35, align 8, !tbaa !27
  %178 = getelementptr inbounds ptr, ptr %177, i64 25
  %179 = load ptr, ptr %178, align 8
  call void %179(ptr noundef nonnull align 8 dereferenceable(16) %35, ptr noundef %176)
  call void @llvm.lifetime.end.p0(i64 8, ptr %24) #3
  br label %256

180:                                              ; preds = %2
  call void @llvm.lifetime.start.p0(i64 8, ptr %25) #3
  %181 = load ptr, ptr %4, align 8, !tbaa !87
  %182 = load ptr, ptr %181, align 8, !tbaa !90
  store ptr %182, ptr %25, align 8, !tbaa !209
  %183 = load ptr, ptr %25, align 8, !tbaa !209
  %184 = load ptr, ptr %35, align 8, !tbaa !27
  %185 = getelementptr inbounds ptr, ptr %184, i64 26
  %186 = load ptr, ptr %185, align 8
  call void %186(ptr noundef nonnull align 8 dereferenceable(16) %35, ptr noundef %183)
  call void @llvm.lifetime.end.p0(i64 8, ptr %25) #3
  br label %256

187:                                              ; preds = %2
  call void @llvm.lifetime.start.p0(i64 8, ptr %26) #3
  %188 = load ptr, ptr %4, align 8, !tbaa !87
  %189 = load ptr, ptr %188, align 8, !tbaa !90
  store ptr %189, ptr %26, align 8, !tbaa !153
  %190 = load ptr, ptr %26, align 8, !tbaa !153
  %191 = load ptr, ptr %35, align 8, !tbaa !27
  %192 = getelementptr inbounds ptr, ptr %191, i64 23
  %193 = load ptr, ptr %192, align 8
  call void %193(ptr noundef nonnull align 8 dereferenceable(16) %35, ptr noundef %190)
  call void @llvm.lifetime.end.p0(i64 8, ptr %26) #3
  br label %256

194:                                              ; preds = %2
  call void @llvm.lifetime.start.p0(i64 8, ptr %27) #3
  %195 = load ptr, ptr %4, align 8, !tbaa !87
  %196 = load ptr, ptr %195, align 8, !tbaa !90
  store ptr %196, ptr %27, align 8, !tbaa !165
  %197 = load ptr, ptr %27, align 8, !tbaa !165
  %198 = load ptr, ptr %35, align 8, !tbaa !27
  %199 = getelementptr inbounds ptr, ptr %198, i64 28
  %200 = load ptr, ptr %199, align 8
  call void %200(ptr noundef nonnull align 8 dereferenceable(16) %35, ptr noundef %197)
  call void @llvm.lifetime.end.p0(i64 8, ptr %27) #3
  br label %256

201:                                              ; preds = %2
  call void @llvm.lifetime.start.p0(i64 8, ptr %28) #3
  %202 = load ptr, ptr %4, align 8, !tbaa !87
  %203 = load ptr, ptr %202, align 8, !tbaa !90
  store ptr %203, ptr %28, align 8, !tbaa !186
  %204 = load ptr, ptr %28, align 8, !tbaa !186
  %205 = load ptr, ptr %35, align 8, !tbaa !27
  %206 = getelementptr inbounds ptr, ptr %205, i64 30
  %207 = load ptr, ptr %206, align 8
  call void %207(ptr noundef nonnull align 8 dereferenceable(16) %35, ptr noundef %204)
  call void @llvm.lifetime.end.p0(i64 8, ptr %28) #3
  br label %256

208:                                              ; preds = %2
  call void @llvm.lifetime.start.p0(i64 8, ptr %29) #3
  %209 = load ptr, ptr %4, align 8, !tbaa !87
  %210 = load ptr, ptr %209, align 8, !tbaa !90
  store ptr %210, ptr %29, align 8, !tbaa !188
  %211 = load ptr, ptr %29, align 8, !tbaa !188
  %212 = load ptr, ptr %35, align 8, !tbaa !27
  %213 = getelementptr inbounds ptr, ptr %212, i64 31
  %214 = load ptr, ptr %213, align 8
  call void %214(ptr noundef nonnull align 8 dereferenceable(16) %35, ptr noundef %211)
  call void @llvm.lifetime.end.p0(i64 8, ptr %29) #3
  br label %256

215:                                              ; preds = %2
  call void @llvm.lifetime.start.p0(i64 8, ptr %30) #3
  %216 = load ptr, ptr %4, align 8, !tbaa !87
  %217 = load ptr, ptr %216, align 8, !tbaa !90
  store ptr %217, ptr %30, align 8, !tbaa !190
  %218 = load ptr, ptr %30, align 8, !tbaa !190
  %219 = load ptr, ptr %35, align 8, !tbaa !27
  %220 = getelementptr inbounds ptr, ptr %219, i64 32
  %221 = load ptr, ptr %220, align 8
  call void %221(ptr noundef nonnull align 8 dereferenceable(16) %35, ptr noundef %218)
  call void @llvm.lifetime.end.p0(i64 8, ptr %30) #3
  br label %256

222:                                              ; preds = %2
  call void @llvm.lifetime.start.p0(i64 8, ptr %31) #3
  %223 = load ptr, ptr %4, align 8, !tbaa !87
  %224 = load ptr, ptr %223, align 8, !tbaa !90
  store ptr %224, ptr %31, align 8, !tbaa !210
  %225 = load ptr, ptr %31, align 8, !tbaa !210
  %226 = load ptr, ptr %35, align 8, !tbaa !27
  %227 = getelementptr inbounds ptr, ptr %226, i64 33
  %228 = load ptr, ptr %227, align 8
  call void %228(ptr noundef nonnull align 8 dereferenceable(16) %35, ptr noundef %225)
  call void @llvm.lifetime.end.p0(i64 8, ptr %31) #3
  br label %256

229:                                              ; preds = %2
  call void @llvm.lifetime.start.p0(i64 8, ptr %32) #3
  %230 = load ptr, ptr %4, align 8, !tbaa !87
  %231 = load ptr, ptr %230, align 8, !tbaa !90
  store ptr %231, ptr %32, align 8, !tbaa !192
  %232 = load ptr, ptr %32, align 8, !tbaa !192
  %233 = load ptr, ptr %35, align 8, !tbaa !27
  %234 = getelementptr inbounds ptr, ptr %233, i64 34
  %235 = load ptr, ptr %234, align 8
  call void %235(ptr noundef nonnull align 8 dereferenceable(16) %35, ptr noundef %232)
  call void @llvm.lifetime.end.p0(i64 8, ptr %32) #3
  br label %256

236:                                              ; preds = %2
  call void @llvm.lifetime.start.p0(i64 8, ptr %33) #3
  %237 = load ptr, ptr %4, align 8, !tbaa !87
  %238 = load ptr, ptr %237, align 8, !tbaa !90
  store ptr %238, ptr %33, align 8, !tbaa !196
  %239 = load ptr, ptr %33, align 8, !tbaa !196
  %240 = load ptr, ptr %35, align 8, !tbaa !27
  %241 = getelementptr inbounds ptr, ptr %240, i64 35
  %242 = load ptr, ptr %241, align 8
  call void %242(ptr noundef nonnull align 8 dereferenceable(16) %35, ptr noundef %239)
  call void @llvm.lifetime.end.p0(i64 8, ptr %33) #3
  br label %256

243:                                              ; preds = %2
  call void @llvm.lifetime.start.p0(i64 8, ptr %34) #3
  %244 = load ptr, ptr %4, align 8, !tbaa !87
  %245 = load ptr, ptr %244, align 8, !tbaa !90
  store ptr %245, ptr %34, align 8, !tbaa !212
  %246 = load ptr, ptr %34, align 8, !tbaa !212
  %247 = load ptr, ptr %35, align 8, !tbaa !27
  %248 = getelementptr inbounds ptr, ptr %247, i64 36
  %249 = load ptr, ptr %248, align 8
  call void %249(ptr noundef nonnull align 8 dereferenceable(16) %35, ptr noundef %246)
  call void @llvm.lifetime.end.p0(i64 8, ptr %34) #3
  br label %256

250:                                              ; preds = %2
  %251 = call noundef nonnull align 8 dereferenceable(8) ptr @_ZStlsISt11char_traitsIcEERSt13basic_ostreamIcT_ES5_PKc(ptr noundef nonnull align 8 dereferenceable(8) @_ZSt4cerr, ptr noundef @.str)
  %252 = load ptr, ptr %4, align 8, !tbaa !87
  %253 = load ptr, ptr %252, align 8, !tbaa !90
  %254 = call noundef nonnull align 8 dereferenceable(8) ptr @_ZNSolsEPKv(ptr noundef nonnull align 8 dereferenceable(8) %251, ptr noundef %253)
  %255 = call noundef nonnull align 8 dereferenceable(8) ptr @_ZNSolsEPFRSoS_E(ptr noundef nonnull align 8 dereferenceable(8) %254, ptr noundef @_ZSt4endlIcSt11char_traitsIcEERSt13basic_ostreamIT_T0_ES6_)
  call void @abort() #18
  unreachable

256:                                              ; preds = %243, %236, %229, %222, %215, %208, %201, %194, %187, %180, %173, %166, %159, %152, %145, %138, %131, %124, %117, %110, %103, %96, %89, %82, %75, %68, %61, %54, %47, %40
  ret void
}